target datalayout = "e-m:e-p270:32:32-p271:32:32-p272:64:64-i64:64-i128:128-f80:128-n8:16:32:64-S128"
target triple = "x86_64-pc-linux-gnu"

%"struct.ozz::math::Quaternion" = type { float, float, float, float }
%"struct.std::_Vector_base.7" = type { %"struct.std::_Vector_base<ozz::animation::offline::RawAnimation::RotationKey, ozz::StdAllocator<ozz::animation::offline::RawAnimation::RotationKey>>::_Vector_impl" }
%"struct.std::_Vector_base<ozz::animation::offline::RawAnimation::RotationKey, ozz::StdAllocator<ozz::animation::offline::RawAnimation::RotationKey>>::_Vector_impl" = type { %"struct.std::_Vector_base<ozz::animation::offline::RawAnimation::RotationKey, ozz::StdAllocator<ozz::animation::offline::RawAnimation::RotationKey>>::_Vector_impl_data" }
%"struct.std::_Vector_base<ozz::animation::offline::RawAnimation::RotationKey, ozz::StdAllocator<ozz::animation::offline::RawAnimation::RotationKey>>::_Vector_impl_data" = type { ptr, ptr, ptr }
%"struct.ozz::animation::offline::RawAnimation::RotationKey" = type { float, %"struct.ozz::math::Quaternion" }
%"class.__gnu_cxx::__normal_iterator.18" = type { ptr }
%"class.__gnu_cxx::__normal_iterator.19" = type { ptr }

; Function Attrs: mustprogress nounwind uwtable
define linkonce_odr dso_local void @_ZN3ozz12StdAllocatorINS_9animation7offline12RawAnimation11RotationKeyEE9constructIS4_JRKS4_EEEvPT_DpOT0_(ptr noundef nonnull align 1 dereferenceable(1) %0, ptr noundef %1, ptr noundef nonnull align 4 dereferenceable(20) %2) #0 comdat align 2 {
  %4 = alloca ptr, align 8
  %5 = alloca ptr, align 8
  %6 = alloca ptr, align 8
  store ptr %0, ptr %4, align 8
  store ptr %1, ptr %5, align 8
  store ptr %2, ptr %6, align 8
  %7 = load ptr, ptr %5, align 8
  %8 = load ptr, ptr %6, align 8
  call void @llvm.memcpy.p0.p0.i64(ptr align 4 %7, ptr align 4 %8, i64 20, i1 false)
  ret void
}

; Function Attrs: mustprogress nounwind uwtable
define linkonce_odr dso_local void @_ZN9__gnu_cxx17__normal_iteratorIPN3ozz9animation7offline12RawAnimation11RotationKeyESt6vectorIS5_NS1_12StdAllocatorIS5_EEEEC2ERKS6_(ptr noundef nonnull align 8 dereferenceable(8) %0, ptr noundef nonnull align 8 dereferenceable(8) %1) unnamed_addr #0 comdat align 2 {
  %3 = alloca ptr, align 8
  %4 = alloca ptr, align 8
  store ptr %0, ptr %3, align 8
  store ptr %1, ptr %4, align 8
  %5 = load ptr, ptr %3, align 8
  %6 = getelementptr inbounds %"class.__gnu_cxx::__normal_iterator.19", ptr %5, i32 0, i32 0
  %7 = load ptr, ptr %4, align 8
  %8 = load ptr, ptr %7, align 8
  store ptr %8, ptr %6, align 8
  ret void
}

; Function Attrs: mustprogress uwtable
define linkonce_odr dso_local void @_ZNSt16allocator_traitsIN3ozz12StdAllocatorINS0_9animation7offline12RawAnimation11RotationKeyEEEE12_S_constructIS5_JRKS5_EEENSt9enable_ifIXsr6__and_INS7_18__construct_helperIT_JDpT0_EE4typeEEE5valueEvE4typeERS6_PSD_DpOSE_(ptr noundef nonnull align 1 dereferenceable(1) %0, ptr noundef %1, ptr noundef nonnull align 4 dereferenceable(20) %2) #3 comdat align 2 {
  %4 = alloca ptr, align 8
  %5 = alloca ptr, align 8
  %6 = alloca ptr, align 8
  store ptr %0, ptr %4, align 8
  store ptr %1, ptr %5, align 8
  store ptr %2, ptr %6, align 8
  %7 = load ptr, ptr %4, align 8
  %8 = load ptr, ptr %5, align 8
  %9 = load ptr, ptr %6, align 8
  call void @_ZN3ozz12StdAllocatorINS_9animation7offline12RawAnimation11RotationKeyEE9constructIS4_JRKS4_EEEvPT_DpOT0_(ptr noundef nonnull align 1 dereferenceable(1) %7, ptr noundef %8, ptr noundef nonnull align 4 dereferenceable(20) %9)
  ret void
}

; Function Attrs: mustprogress nounwind uwtable
define linkonce_odr dso_local noundef nonnull align 8 dereferenceable(8) ptr @_ZNK9__gnu_cxx17__normal_iteratorIPKN3ozz9animation7offline12RawAnimation11RotationKeyESt6vectorIS5_NS1_12StdAllocatorIS5_EEEE4baseEv(ptr noundef nonnull align 8 dereferenceable(8) %0) #0 comdat align 2 {
  %2 = alloca ptr, align 8
  store ptr %0, ptr %2, align 8
  %3 = load ptr, ptr %2, align 8
  %4 = getelementptr inbounds %"class.__gnu_cxx::__normal_iterator.18", ptr %3, i32 0, i32 0
  ret ptr %4
}

; Function Attrs: mustprogress nounwind uwtable
define linkonce_odr dso_local void @_ZN9__gnu_cxx17__normal_iteratorIPKN3ozz9animation7offline12RawAnimation11RotationKeyESt6vectorIS5_NS1_12StdAllocatorIS5_EEEEC2ERKS7_(ptr noundef nonnull align 8 dereferenceable(8) %0, ptr noundef nonnull align 8 dereferenceable(8) %1) unnamed_addr #0 comdat align 2 {
  %3 = alloca ptr, align 8
  %4 = alloca ptr, align 8
  store ptr %0, ptr %3, align 8
  store ptr %1, ptr %4, align 8
  %5 = load ptr, ptr %3, align 8
  %6 = getelementptr inbounds %"class.__gnu_cxx::__normal_iterator.18", ptr %5, i32 0, i32 0
  %7 = load ptr, ptr %4, align 8
  %8 = load ptr, ptr %7, align 8
  store ptr %8, ptr %6, align 8
  ret void
}

; Function Attrs: mustprogress nounwind uwtable
define linkonce_odr dso_local ptr @_ZNSt6vectorIN3ozz9animation7offline12RawAnimation11RotationKeyENS0_12StdAllocatorIS4_EEE3endEv(ptr noundef nonnull align 8 dereferenceable(24) %0) #0 comdat align 2 {
  %2 = alloca %"class.__gnu_cxx::__normal_iterator.19", align 8
  %3 = alloca ptr, align 8
  store ptr %0, ptr %3, align 8
  %4 = load ptr, ptr %3, align 8
  %5 = getelementptr inbounds %"struct.std::_Vector_base.7", ptr %4, i32 0, i32 0
  %6 = getelementptr inbounds %"struct.std::_Vector_base<ozz::animation::offline::RawAnimation::RotationKey, ozz::StdAllocator<ozz::animation::offline::RawAnimation::RotationKey>>::_Vector_impl_data", ptr %5, i32 0, i32 1
  call void @_ZN9__gnu_cxx17__normal_iteratorIPN3ozz9animation7offline12RawAnimation11RotationKeyESt6vectorIS5_NS1_12StdAllocatorIS5_EEEEC2ERKS6_(ptr noundef nonnull align 8 dereferenceable(8) %2, ptr noundef nonnull align 8 dereferenceable(8) %6) #10
  %7 = getelementptr inbounds %"class.__gnu_cxx::__normal_iterator.19", ptr %2, i32 0, i32 0
  %8 = load ptr, ptr %7, align 8
  ret ptr %8
}

; Function Attrs: mustprogress uwtable
define linkonce_odr dso_local void @_ZNSt16allocator_traitsIN3ozz12StdAllocatorINS0_9animation7offline12RawAnimation11RotationKeyEEEE9constructIS5_JRKS5_EEEDTcl12_S_constructfp_fp0_spclsr3stdE7forwardIT0_Efp1_EEERS6_PT_DpOSB_(ptr noundef nonnull align 1 dereferenceable(1) %0, ptr noundef %1, ptr noundef nonnull align 4 dereferenceable(20) %2) #3 comdat align 2 {
  %4 = alloca ptr, align 8
  %5 = alloca ptr, align 8
  %6 = alloca ptr, align 8
  store ptr %0, ptr %4, align 8
  store ptr %1, ptr %5, align 8
  store ptr %2, ptr %6, align 8
  %7 = load ptr, ptr %4, align 8
  %8 = load ptr, ptr %5, align 8
  %9 = load ptr, ptr %6, align 8
  call void @_ZNSt16allocator_traitsIN3ozz12StdAllocatorINS0_9animation7offline12RawAnimation11RotationKeyEEEE12_S_constructIS5_JRKS5_EEENSt9enable_ifIXsr6__and_INS7_18__construct_helperIT_JDpT0_EE4typeEEE5valueEvE4typeERS6_PSD_DpOSE_(ptr noundef nonnull align 1 dereferenceable(1) %7, ptr noundef %8, ptr noundef nonnull align 4 dereferenceable(20) %9)
  ret void
}

; Function Attrs: mustprogress nounwind uwtable
define linkonce_odr dso_local noundef zeroext i1 @_ZN9__gnu_cxxeqIPKN3ozz9animation7offline12RawAnimation11RotationKeyESt6vectorIS5_NS1_12StdAllocatorIS5_EEEEEbRKNS_17__normal_iteratorIT_T0_EESH_(ptr noundef nonnull align 8 dereferenceable(8) %0, ptr noundef nonnull align 8 dereferenceable(8) %1) #0 comdat {
  %3 = alloca ptr, align 8
  %4 = alloca ptr, align 8
  store ptr %0, ptr %3, align 8
  store ptr %1, ptr %4, align 8
  %5 = load ptr, ptr %3, align 8
  %6 = call noundef nonnull align 8 dereferenceable(8) ptr @_ZNK9__gnu_cxx17__normal_iteratorIPKN3ozz9animation7offline12RawAnimation11RotationKeyESt6vectorIS5_NS1_12StdAllocatorIS5_EEEE4baseEv(ptr noundef nonnull align 8 dereferenceable(8) %5) #10
  %7 = load ptr, ptr %6, align 8
  %8 = load ptr, ptr %4, align 8
  %9 = call noundef nonnull align 8 dereferenceable(8) ptr @_ZNK9__gnu_cxx17__normal_iteratorIPKN3ozz9animation7offline12RawAnimation11RotationKeyESt6vectorIS5_NS1_12StdAllocatorIS5_EEEE4baseEv(ptr noundef nonnull align 8 dereferenceable(8) %8) #10
  %10 = load ptr, ptr %9, align 8
  %11 = icmp eq ptr %7, %10
  ret i1 %11
}

; Function Attrs: mustprogress nounwind uwtable
define linkonce_odr dso_local ptr @_ZNKSt6vectorIN3ozz9animation7offline12RawAnimation11RotationKeyENS0_12StdAllocatorIS4_EEE3endEv(ptr noundef nonnull align 8 dereferenceable(24) %0) #0 comdat align 2 {
  %2 = alloca %"class.__gnu_cxx::__normal_iterator.18", align 8
  %3 = alloca ptr, align 8
  store ptr %0, ptr %3, align 8
  %4 = load ptr, ptr %3, align 8
  %5 = getelementptr inbounds %"struct.std::_Vector_base.7", ptr %4, i32 0, i32 0
  %6 = getelementptr inbounds %"struct.std::_Vector_base<ozz::animation::offline::RawAnimation::RotationKey, ozz::StdAllocator<ozz::animation::offline::RawAnimation::RotationKey>>::_Vector_impl_data", ptr %5, i32 0, i32 1
  call void @_ZN9__gnu_cxx17__normal_iteratorIPKN3ozz9animation7offline12RawAnimation11RotationKeyESt6vectorIS5_NS1_12StdAllocatorIS5_EEEEC2ERKS7_(ptr noundef nonnull align 8 dereferenceable(8) %2, ptr noundef nonnull align 8 dereferenceable(8) %6) #10
  %7 = getelementptr inbounds %"class.__gnu_cxx::__normal_iterator.18", ptr %2, i32 0, i32 0
  %8 = load ptr, ptr %7, align 8
  ret ptr %8
}

; Function Attrs: mustprogress nounwind uwtable
define linkonce_odr dso_local ptr @_ZNKSt6vectorIN3ozz9animation7offline12RawAnimation11RotationKeyENS0_12StdAllocatorIS4_EEE5beginEv(ptr noundef nonnull align 8 dereferenceable(24) %0) #0 comdat align 2 {
  %2 = alloca %"class.__gnu_cxx::__normal_iterator.18", align 8
  %3 = alloca ptr, align 8
  store ptr %0, ptr %3, align 8
  %4 = load ptr, ptr %3, align 8
  %5 = getelementptr inbounds %"struct.std::_Vector_base.7", ptr %4, i32 0, i32 0
  %6 = getelementptr inbounds %"struct.std::_Vector_base<ozz::animation::offline::RawAnimation::RotationKey, ozz::StdAllocator<ozz::animation::offline::RawAnimation::RotationKey>>::_Vector_impl_data", ptr %5, i32 0, i32 0
  call void @_ZN9__gnu_cxx17__normal_iteratorIPKN3ozz9animation7offline12RawAnimation11RotationKeyESt6vectorIS5_NS1_12StdAllocatorIS5_EEEEC2ERKS7_(ptr noundef nonnull align 8 dereferenceable(8) %2, ptr noundef nonnull align 8 dereferenceable(8) %6) #10
  %7 = getelementptr inbounds %"class.__gnu_cxx::__normal_iterator.18", ptr %2, i32 0, i32 0
  %8 = load ptr, ptr %7, align 8
  ret ptr %8
}

; Function Attrs: mustprogress uwtable
define linkonce_odr dso_local void @_ZNSt6vectorIN3ozz9animation7offline12RawAnimation11RotationKeyENS0_12StdAllocatorIS4_EEE9push_backERKS4_(ptr noundef nonnull align 8 dereferenceable(24) %0, ptr noundef nonnull align 4 dereferenceable(20) %1) #3 comdat align 2 {
  %3 = alloca ptr, align 8
  %4 = alloca ptr, align 8
  %5 = alloca %"class.__gnu_cxx::__normal_iterator.19", align 8
  store ptr %0, ptr %3, align 8
  store ptr %1, ptr %4, align 8
  %6 = load ptr, ptr %3, align 8
  %7 = getelementptr inbounds %"struct.std::_Vector_base.7", ptr %6, i32 0, i32 0
  %8 = getelementptr inbounds %"struct.std::_Vector_base<ozz::animation::offline::RawAnimation::RotationKey, ozz::StdAllocator<ozz::animation::offline::RawAnimation::RotationKey>>::_Vector_impl_data", ptr %7, i32 0, i32 1
  %9 = load ptr, ptr %8, align 8
  %10 = getelementptr inbounds %"struct.std::_Vector_base.7", ptr %6, i32 0, i32 0
  %11 = getelementptr inbounds %"struct.std::_Vector_base<ozz::animation::offline::RawAnimation::RotationKey, ozz::StdAllocator<ozz::animation::offline::RawAnimation::RotationKey>>::_Vector_impl_data", ptr %10, i32 0, i32 2
  %12 = load ptr, ptr %11, align 8
  %13 = icmp ne ptr %9, %12
  br i1 %13, label %14, label %24

14:                                               ; preds = %2
  %15 = getelementptr inbounds %"struct.std::_Vector_base.7", ptr %6, i32 0, i32 0
  %16 = getelementptr inbounds %"struct.std::_Vector_base.7", ptr %6, i32 0, i32 0
  %17 = getelementptr inbounds %"struct.std::_Vector_base<ozz::animation::offline::RawAnimation::RotationKey, ozz::StdAllocator<ozz::animation::offline::RawAnimation::RotationKey>>::_Vector_impl_data", ptr %16, i32 0, i32 1
  %18 = load ptr, ptr %17, align 8
  %19 = load ptr, ptr %4, align 8
  call void @_ZNSt16allocator_traitsIN3ozz12StdAllocatorINS0_9animation7offline12RawAnimation11RotationKeyEEEE9constructIS5_JRKS5_EEEDTcl12_S_constructfp_fp0_spclsr3stdE7forwardIT0_Efp1_EEERS6_PT_DpOSB_(ptr noundef nonnull align 1 dereferenceable(1) %15, ptr noundef %18, ptr noundef nonnull align 4 dereferenceable(20) %19)
  %20 = getelementptr inbounds %"struct.std::_Vector_base.7", ptr %6, i32 0, i32 0
  %21 = getelementptr inbounds %"struct.std::_Vector_base<ozz::animation::offline::RawAnimation::RotationKey, ozz::StdAllocator<ozz::animation::offline::RawAnimation::RotationKey>>::_Vector_impl_data", ptr %20, i32 0, i32 1
  %22 = load ptr, ptr %21, align 8
  %23 = getelementptr inbounds %"struct.ozz::animation::offline::RawAnimation::RotationKey", ptr %22, i32 1
  store ptr %23, ptr %21, align 8
  br label %30

24:                                               ; preds = %2
  %25 = call ptr @_ZNSt6vectorIN3ozz9animation7offline12RawAnimation11RotationKeyENS0_12StdAllocatorIS4_EEE3endEv(ptr noundef nonnull align 8 dereferenceable(24) %6) #10
  %26 = getelementptr inbounds %"class.__gnu_cxx::__normal_iterator.19", ptr %5, i32 0, i32 0
  store ptr %25, ptr %26, align 8
  %27 = load ptr, ptr %4, align 8
  %28 = getelementptr inbounds %"class.__gnu_cxx::__normal_iterator.19", ptr %5, i32 0, i32 0
  %29 = load ptr, ptr %28, align 8
  call void @_ZNSt6vectorIN3ozz9animation7offline12RawAnimation11RotationKeyENS0_12StdAllocatorIS4_EEE17_M_realloc_insertIJRKS4_EEEvN9__gnu_cxx17__normal_iteratorIPS4_S7_EEDpOT_(ptr noundef nonnull align 8 dereferenceable(24) %6, ptr %29, ptr noundef nonnull align 4 dereferenceable(20) %27)
  br label %30

30:                                               ; preds = %24, %14
  ret void
}

; Function Attrs: mustprogress nounwind uwtable
define linkonce_odr dso_local noundef nonnull align 4 dereferenceable(20) ptr @_ZNKSt6vectorIN3ozz9animation7offline12RawAnimation11RotationKeyENS0_12StdAllocatorIS4_EEEixEm(ptr noundef nonnull align 8 dereferenceable(24) %0, i64 noundef %1) #0 comdat align 2 {
  %3 = alloca ptr, align 8
  %4 = alloca i64, align 8
  store ptr %0, ptr %3, align 8
  store i64 %1, ptr %4, align 8
  %5 = load ptr, ptr %3, align 8
  %6 = getelementptr inbounds %"struct.std::_Vector_base.7", ptr %5, i32 0, i32 0
  %7 = getelementptr inbounds %"struct.std::_Vector_base<ozz::animation::offline::RawAnimation::RotationKey, ozz::StdAllocator<ozz::animation::offline::RawAnimation::RotationKey>>::_Vector_impl_data", ptr %6, i32 0, i32 0
  %8 = load ptr, ptr %7, align 8
  %9 = load i64, ptr %4, align 8
  %10 = getelementptr inbounds %"struct.ozz::animation::offline::RawAnimation::RotationKey", ptr %8, i64 %9
  ret ptr %10
}

; Function Attrs: mustprogress nounwind uwtable
define linkonce_odr dso_local noundef zeroext i1 @_ZNKSt6vectorIN3ozz9animation7offline12RawAnimation11RotationKeyENS0_12StdAllocatorIS4_EEE5emptyEv(ptr noundef nonnull align 8 dereferenceable(24) %0) #0 comdat align 2 {
  %2 = alloca ptr, align 8
  %3 = alloca %"class.__gnu_cxx::__normal_iterator.18", align 8
  %4 = alloca %"class.__gnu_cxx::__normal_iterator.18", align 8
  store ptr %0, ptr %2, align 8
  %5 = load ptr, ptr %2, align 8
  %6 = call ptr @_ZNKSt6vectorIN3ozz9animation7offline12RawAnimation11RotationKeyENS0_12StdAllocatorIS4_EEE5beginEv(ptr noundef nonnull align 8 dereferenceable(24) %5) #10
  %7 = getelementptr inbounds %"class.__gnu_cxx::__normal_iterator.18", ptr %3, i32 0, i32 0
  store ptr %6, ptr %7, align 8
  %8 = call ptr @_ZNKSt6vectorIN3ozz9animation7offline12RawAnimation11RotationKeyENS0_12StdAllocatorIS4_EEE3endEv(ptr noundef nonnull align 8 dereferenceable(24) %5) #10
  %9 = getelementptr inbounds %"class.__gnu_cxx::__normal_iterator.18", ptr %4, i32 0, i32 0
  store ptr %8, ptr %9, align 8
  %10 = call noundef zeroext i1 @_ZN9__gnu_cxxeqIPKN3ozz9animation7offline12RawAnimation11RotationKeyESt6vectorIS5_NS1_12StdAllocatorIS5_EEEEEbRKNS_17__normal_iteratorIT_T0_EESH_(ptr noundef nonnull align 8 dereferenceable(8) %3, ptr noundef nonnull align 8 dereferenceable(8) %4) #10
  ret i1 %10
}

; Function Attrs: mustprogress nounwind uwtable
define linkonce_odr dso_local noundef i64 @_ZNKSt6vectorIN3ozz9animation7offline12RawAnimation11RotationKeyENS0_12StdAllocatorIS4_EEE4sizeEv(ptr noundef nonnull align 8 dereferenceable(24) %0) #0 comdat align 2 {
  %2 = alloca ptr, align 8
  store ptr %0, ptr %2, align 8
  %3 = load ptr, ptr %2, align 8
  %4 = getelementptr inbounds %"struct.std::_Vector_base.7", ptr %3, i32 0, i32 0
  %5 = getelementptr inbounds %"struct.std::_Vector_base<ozz::animation::offline::RawAnimation::RotationKey, ozz::StdAllocator<ozz::animation::offline::RawAnimation::RotationKey>>::_Vector_impl_data", ptr %4, i32 0, i32 1
  %6 = load ptr, ptr %5, align 8
  %7 = getelementptr inbounds %"struct.std::_Vector_base.7", ptr %3, i32 0, i32 0
  %8 = getelementptr inbounds %"struct.std::_Vector_base<ozz::animation::offline::RawAnimation::RotationKey, ozz::StdAllocator<ozz::animation::offline::RawAnimation::RotationKey>>::_Vector_impl_data", ptr %7, i32 0, i32 0
  %9 = load ptr, ptr %8, align 8
  %10 = ptrtoint ptr %6 to i64
  %11 = ptrtoint ptr %9 to i64
  %12 = sub i64 %10, %11
  %13 = sdiv exact i64 %12, 20
  ret i64 %13
}

; Function Attrs: mustprogress uwtable
define internal void @_ZN3ozz9animation7offline12_GLOBAL__N_19MakeDeltaISt6vectorINS1_12RawAnimation11RotationKeyENS_12StdAllocatorIS6_EEENS_4math10QuaternionEFSB_RKSB_SD_EEEvRKT_RKT0_RKT1_PSF_(ptr noundef nonnull align 8 dereferenceable(24) %0, ptr noundef nonnull align 4 dereferenceable(16) %1, ptr noundef nonnull %2, ptr noundef %3) #1 {
  %5 = alloca ptr, align 8
  %6 = alloca ptr, align 8
  %7 = alloca ptr, align 8
  %8 = alloca ptr, align 8
  %9 = alloca i64, align 8
  %10 = alloca %"struct.ozz::animation::offline::RawAnimation::RotationKey", align 4
  store ptr %0, ptr %5, align 8
  store ptr %1, ptr %6, align 8
  store ptr %2, ptr %7, align 8
  store ptr %3, ptr %8, align 8
  %11 = load ptr, ptr %8, align 8
  %12 = load ptr, ptr %5, align 8
  %13 = call noundef i64 @_ZNKSt6vectorIN3ozz9animation7offline12RawAnimation11RotationKeyENS0_12StdAllocatorIS4_EEE4sizeEv(ptr noundef nonnull align 8 dereferenceable(24) %12) #10
  call void @_ZNSt6vectorIN3ozz9animation7offline12RawAnimation11RotationKeyENS0_12StdAllocatorIS4_EEE7reserveEm(ptr noundef nonnull align 8 dereferenceable(24) %11, i64 noundef %13)
  %14 = load ptr, ptr %5, align 8
  %15 = call noundef zeroext i1 @_ZNKSt6vectorIN3ozz9animation7offline12RawAnimation11RotationKeyENS0_12StdAllocatorIS4_EEE5emptyEv(ptr noundef nonnull align 8 dereferenceable(24) %14) #10
  br i1 %15, label %16, label %17

16:                                               ; preds = %4
  br label %46

17:                                               ; preds = %4
  store i64 0, ptr %9, align 8
  br label %18

18:                                               ; preds = %43, %17
  %19 = load i64, ptr %9, align 8
  %20 = load ptr, ptr %5, align 8
  %21 = call noundef i64 @_ZNKSt6vectorIN3ozz9animation7offline12RawAnimation11RotationKeyENS0_12StdAllocatorIS4_EEE4sizeEv(ptr noundef nonnull align 8 dereferenceable(24) %20) #10
  %22 = icmp ult i64 %19, %21
  br i1 %22, label %23, label %46

23:                                               ; preds = %18
  %24 = getelementptr inbounds %"struct.ozz::animation::offline::RawAnimation::RotationKey", ptr %10, i32 0, i32 0
  %25 = load ptr, ptr %5, align 8
  %26 = load i64, ptr %9, align 8
  %27 = call noundef nonnull align 4 dereferenceable(20) ptr @_ZNKSt6vectorIN3ozz9animation7offline12RawAnimation11RotationKeyENS0_12StdAllocatorIS4_EEEixEm(ptr noundef nonnull align 8 dereferenceable(24) %25, i64 noundef %26) #10
  %28 = getelementptr inbounds %"struct.ozz::animation::offline::RawAnimation::RotationKey", ptr %27, i32 0, i32 0
  %29 = load float, ptr %28, align 4
  store float %29, ptr %24, align 4
  %30 = getelementptr inbounds %"struct.ozz::animation::offline::RawAnimation::RotationKey", ptr %10, i32 0, i32 1
  %31 = load ptr, ptr %7, align 8
  %32 = load ptr, ptr %6, align 8
  %33 = load ptr, ptr %5, align 8
  %34 = load i64, ptr %9, align 8
  %35 = call noundef nonnull align 4 dereferenceable(20) ptr @_ZNKSt6vectorIN3ozz9animation7offline12RawAnimation11RotationKeyENS0_12StdAllocatorIS4_EEEixEm(ptr noundef nonnull align 8 dereferenceable(24) %33, i64 noundef %34) #10
  %36 = getelementptr inbounds %"struct.ozz::animation::offline::RawAnimation::RotationKey", ptr %35, i32 0, i32 1
  %37 = call { <2 x float>, <2 x float> } %31(ptr noundef nonnull align 4 dereferenceable(16) %32, ptr noundef nonnull align 4 dereferenceable(16) %36)
  %38 = getelementptr inbounds { <2 x float>, <2 x float> }, ptr %30, i32 0, i32 0
  %39 = extractvalue { <2 x float>, <2 x float> } %37, 0
  store <2 x float> %39, ptr %38, align 4
  %40 = getelementptr inbounds { <2 x float>, <2 x float> }, ptr %30, i32 0, i32 1
  %41 = extractvalue { <2 x float>, <2 x float> } %37, 1
  store <2 x float> %41, ptr %40, align 4
  %42 = load ptr, ptr %8, align 8
  call void @_ZNSt6vectorIN3ozz9animation7offline12RawAnimation11RotationKeyENS0_12StdAllocatorIS4_EEE9push_backERKS4_(ptr noundef nonnull align 8 dereferenceable(24) %42, ptr noundef nonnull align 4 dereferenceable(20) %10)
  br label %43

43:                                               ; preds = %23
  %44 = load i64, ptr %9, align 8
  %45 = add i64 %44, 1
  store i64 %45, ptr %9, align 8
  br label %18, !llvm.loop !8

46:                                               ; preds = %18, %16
  ret void
}