; Function Attrs: mustprogress uwtable
define internal fastcc void @_ZN3ozz9animation7offline12_GLOBAL__N_19MakeDeltaISt6vectorINS1_12RawAnimation11RotationKeyENS_12StdAllocatorIS6_EEENS_4math10QuaternionEFSB_RKSB_SD_EEEvRKT_RKT0_RKT1_PSF_(ptr nocapture noundef nonnull readonly align 8 dereferenceable(24) %0, ptr nocapture noundef nonnull readonly align 4 dereferenceable(16) %1, ptr noundef nonnull %2) unnamed_addr #1 {
  %4 = alloca %"struct.ozz::animation::offline::RawAnimation::RotationKey", align 4
  %5 = getelementptr inbounds i8, ptr %0, i64 8
  %6 = load ptr, ptr %5, align 8
  %7 = load ptr, ptr %0, align 8
  %8 = ptrtoint ptr %6 to i64
  %9 = ptrtoint ptr %7 to i64
  %10 = sub i64 %8, %9
  %11 = sdiv exact i64 %10, 20
  tail call void @_ZNSt6vectorIN3ozz9animation7offline12RawAnimation11RotationKeyENS0_12StdAllocatorIS4_EEE7reserveEm(ptr noundef nonnull align 8 dereferenceable(24) %2, i64 noundef %11)
  %12 = load ptr, ptr %0, align 8
  %13 = load ptr, ptr %5, align 8
  %14 = icmp eq ptr %12, %13
  br i1 %14, label %.loopexit, label %.lr.ph

.lr.ph:                                           ; preds = %3
  %15 = getelementptr inbounds i8, ptr %4, i64 4
  %16 = getelementptr inbounds i8, ptr %1, i64 4
  %17 = getelementptr inbounds i8, ptr %4, i64 12
  %18 = getelementptr inbounds i8, ptr %2, i64 8
  %19 = getelementptr inbounds i8, ptr %2, i64 16
  br label %20

20:                                               ; preds = %.lr.ph, %_ZNSt6vectorIN3ozz9animation7offline12RawAnimation11RotationKeyENS0_12StdAllocatorIS4_EEE9push_backERKS4_.exit
  %21 = phi ptr [ %12, %.lr.ph ], [ %63, %_ZNSt6vectorIN3ozz9animation7offline12RawAnimation11RotationKeyENS0_12StdAllocatorIS4_EEE9push_backERKS4_.exit ]
  %.01 = phi i64 [ 0, %.lr.ph ], [ %61, %_ZNSt6vectorIN3ozz9animation7offline12RawAnimation11RotationKeyENS0_12StdAllocatorIS4_EEE9push_backERKS4_.exit ]
  %22 = getelementptr inbounds %"struct.ozz::animation::offline::RawAnimation::RotationKey", ptr %21, i64 %.01
  %23 = load float, ptr %22, align 4
  store float %23, ptr %4, align 4
  %24 = getelementptr inbounds i8, ptr %22, i64 4
  %25 = load float, ptr %1, align 4
  %26 = fneg float %25
  %27 = load <4 x float>, ptr %1, align 4
  %28 = getelementptr inbounds i8, ptr %22, i64 12
  %29 = load <2 x float>, ptr %16, align 4
  %30 = load <2 x float>, ptr %28, align 4
  %31 = load <2 x float>, ptr %24, align 4
  %32 = fneg <2 x float> %29
  %33 = shufflevector <2 x float> %30, <2 x float> poison, <2 x i32> <i32 1, i32 1>
  %34 = shufflevector <2 x float> %32, <2 x float> poison, <2 x i32> <i32 1, i32 0>
  %35 = insertelement <2 x float> %34, float %26, i64 0
  %36 = fmul <2 x float> %33, %35
  %37 = shufflevector <4 x float> %27, <4 x float> poison, <2 x i32> <i32 3, i32 3>
  %38 = call <2 x float> @llvm.fmuladd.v2f32(<2 x float> %37, <2 x float> %31, <2 x float> %36)
  %39 = shufflevector <2 x float> %30, <2 x float> %31, <2 x i32> <i32 0, i32 2>
  %40 = call <2 x float> @llvm.fmuladd.v2f32(<2 x float> %32, <2 x float> %39, <2 x float> %38)
  %41 = shufflevector <2 x float> %29, <2 x float> %30, <2 x i32> <i32 1, i32 2>
  %42 = shufflevector <2 x float> %31, <2 x float> poison, <2 x i32> <i32 1, i32 poison>
  %43 = insertelement <2 x float> %42, float %25, i64 1
  %44 = call <2 x float> @llvm.fmuladd.v2f32(<2 x float> %41, <2 x float> %43, <2 x float> %40)
  %45 = shufflevector <2 x float> %33, <2 x float> %31, <2 x i32> <i32 0, i32 2>
  %46 = insertelement <2 x float> %34, float %25, i64 1
  %47 = fmul <2 x float> %45, %46
  %48 = call <2 x float> @llvm.fmuladd.v2f32(<2 x float> %37, <2 x float> %30, <2 x float> %47)
  %49 = shufflevector <2 x float> %29, <2 x float> poison, <2 x i32> <i32 poison, i32 0>
  %50 = insertelement <2 x float> %49, float %26, i64 0
  %51 = shufflevector <2 x float> %31, <2 x float> poison, <2 x i32> <i32 1, i32 1>
  %52 = call <2 x float> @llvm.fmuladd.v2f32(<2 x float> %50, <2 x float> %51, <2 x float> %48)
  %53 = shufflevector <2 x float> %31, <2 x float> %30, <2 x i32> <i32 0, i32 2>
  %54 = call <2 x float> @llvm.fmuladd.v2f32(<2 x float> %29, <2 x float> %53, <2 x float> %52)
  store <2 x float> %44, ptr %15, align 4
  store <2 x float> %54, ptr %17, align 4
  %55 = load ptr, ptr %18, align 8
  %56 = load ptr, ptr %19, align 8
  %.not.i = icmp eq ptr %55, %56
  br i1 %.not.i, label %60, label %57

57:                                               ; preds = %20
  call void @llvm.memcpy.p0.p0.i64(ptr noundef nonnull align 4 dereferenceable(20) %55, ptr noundef nonnull align 4 dereferenceable(20) %4, i64 20, i1 false)
  %58 = load ptr, ptr %18, align 8
  %59 = getelementptr inbounds i8, ptr %58, i64 20
  store ptr %59, ptr %18, align 8
  br label %_ZNSt6vectorIN3ozz9animation7offline12RawAnimation11RotationKeyENS0_12StdAllocatorIS4_EEE9push_backERKS4_.exit

60:                                               ; preds = %20
  call void @_ZNSt6vectorIN3ozz9animation7offline12RawAnimation11RotationKeyENS0_12StdAllocatorIS4_EEE17_M_realloc_insertIJRKS4_EEEvN9__gnu_cxx17__normal_iteratorIPS4_S7_EEDpOT_(ptr noundef nonnull align 8 dereferenceable(24) %2, ptr %55, ptr noundef nonnull align 4 dereferenceable(20) %4)
  br label %_ZNSt6vectorIN3ozz9animation7offline12RawAnimation11RotationKeyENS0_12StdAllocatorIS4_EEE9push_backERKS4_.exit

_ZNSt6vectorIN3ozz9animation7offline12RawAnimation11RotationKeyENS0_12StdAllocatorIS4_EEE9push_backERKS4_.exit: ; preds = %57, %60
  %61 = add nuw i64 %.01, 1
  %62 = load ptr, ptr %5, align 8
  %63 = load ptr, ptr %0, align 8
  %64 = ptrtoint ptr %62 to i64
  %65 = ptrtoint ptr %63 to i64
  %66 = sub i64 %64, %65
  %67 = sdiv exact i64 %66, 20
  %68 = icmp ult i64 %61, %67
  br i1 %68, label %20, label %.loopexit, !llvm.loop !12

.loopexit:                                        ; preds = %_ZNSt6vectorIN3ozz9animation7offline12RawAnimation11RotationKeyENS0_12StdAllocatorIS4_EEE9push_backERKS4_.exit, %3
  ret void
}